target datalayout = "e-m:e-p270:32:32-p271:32:32-p272:64:64-i64:64-i128:128-f80:128-n8:16:32:64-S128"
target triple = "x86_64-pc-linux-gnu"

%struct.FFFrameSync = type { ptr, ptr, i32, %struct.AVRational, i64, ptr, ptr, i32, i32, i8, i8, ptr, i32, i32, i32, i32 }
%struct.AVRational = type { i32, i32 }

@ff_framesync_class = constant { ptr, ptr, ptr, i32, i32, i32, i32, ptr, ptr, ptr, ptr, i32, [4 x i8] } { ptr @.str, ptr @framesync_name, ptr @framesync_options, i32 3932772, i32 0, i32 8, i32 7, ptr null, ptr null, ptr null, ptr null, i32 0, [4 x i8] zeroinitializer }, align 8

; Function Attrs: nounwind uwtable
define void @ff_framesync_preinit(ptr noundef %0) #0 {
  %2 = alloca ptr, align 8
  store ptr %0, ptr %2, align 8, !tbaa !12
  %3 = load ptr, ptr %2, align 8, !tbaa !12
  %4 = getelementptr inbounds nuw %struct.FFFrameSync, ptr %3, i32 0, i32 0
  %5 = load ptr, ptr %4, align 8, !tbaa !14
  %6 = icmp ne ptr %5, null
  br i1 %6, label %7, label %8

7:                                                ; preds = %1
  br label %12

8:                                                ; preds = %1
  %9 = load ptr, ptr %2, align 8, !tbaa !12
  %10 = getelementptr inbounds nuw %struct.FFFrameSync, ptr %9, i32 0, i32 0
  store ptr @ff_framesync_class, ptr %10, align 8, !tbaa !14
  %11 = load ptr, ptr %2, align 8, !tbaa !12
  call void @av_opt_set_defaults(ptr noundef %11)
  br label %12

12:                                               ; preds = %8, %7
  ret void
}