; Function Attrs: nounwind uwtable
define void @ff_framesync_preinit(ptr noundef %0) local_unnamed_addr #3 {
  %2 = load ptr, ptr %0, align 8, !tbaa !8
  %.not = icmp eq ptr %2, null
  br i1 %.not, label %3, label %4

3:                                                ; preds = %1
  store ptr @ff_framesync_class, ptr %0, align 8, !tbaa !8
  tail call void @av_opt_set_defaults(ptr noundef nonnull %0) #8
  br label %4

4:                                                ; preds = %1, %3
  ret void
}